target datalayout = "e-m:e-p270:32:32-p271:32:32-p272:64:64-i64:64-i128:128-f80:128-n8:16:32:64-S128"
target triple = "x86_64-pc-linux-gnu"

%class.DwarfParser = type <{ ptr, ptr, i8, [3 x i8], i32, i32, i32, i32, [4 x i8], i64, i32, i32, i32, i8, [3 x i8] }>

; Function Attrs: mustprogress nounwind uwtable
define hidden noundef i32 @_ZN11DwarfParser12get_pc_rangeEv(ptr noundef nonnull align 8 dereferenceable(61) %0) #0 align 2 {
  %2 = alloca i32, align 4
  %3 = alloca ptr, align 8
  %4 = alloca i32, align 4
  %5 = alloca i64, align 8
  store ptr %0, ptr %3, align 8
  %6 = load ptr, ptr %3, align 8
  %7 = getelementptr inbounds %class.DwarfParser, ptr %6, i32 0, i32 2
  %8 = load i8, ptr %7, align 8
  %9 = zext i8 %8 to i32
  %10 = and i32 %9, 7
  switch i32 %10, label %29 [
    i32 0, label %11
    i32 2, label %15
    i32 3, label %20
    i32 4, label %25
  ]

11:                                               ; preds = %1
  store i32 8, ptr %4, align 4
  %12 = getelementptr inbounds %class.DwarfParser, ptr %6, i32 0, i32 1
  %13 = load ptr, ptr %12, align 8
  %14 = load i64, ptr %13, align 8
  store i64 %14, ptr %5, align 8
  br label %30

15:                                               ; preds = %1
  store i32 2, ptr %4, align 4
  %16 = getelementptr inbounds %class.DwarfParser, ptr %6, i32 0, i32 1
  %17 = load ptr, ptr %16, align 8
  %18 = load i32, ptr %17, align 4
  %19 = zext i32 %18 to i64
  store i64 %19, ptr %5, align 8
  br label %30

20:                                               ; preds = %1
  store i32 4, ptr %4, align 4
  %21 = getelementptr inbounds %class.DwarfParser, ptr %6, i32 0, i32 1
  %22 = load ptr, ptr %21, align 8
  %23 = load i32, ptr %22, align 4
  %24 = zext i32 %23 to i64
  store i64 %24, ptr %5, align 8
  br label %30

25:                                               ; preds = %1
  store i32 8, ptr %4, align 4
  %26 = getelementptr inbounds %class.DwarfParser, ptr %6, i32 0, i32 1
  %27 = load ptr, ptr %26, align 8
  %28 = load i64, ptr %27, align 8
  store i64 %28, ptr %5, align 8
  br label %30

29:                                               ; preds = %1
  store i32 0, ptr %2, align 4
  br label %45

30:                                               ; preds = %25, %20, %15, %11
  %31 = load i32, ptr %4, align 4
  %32 = icmp eq i32 %31, 8
  br i1 %32, label %36, label %33

33:                                               ; preds = %30
  %34 = load i32, ptr %4, align 4
  %35 = icmp eq i32 %34, 2
  br i1 %35, label %36, label %37

36:                                               ; preds = %33, %30
  store i32 4, ptr %4, align 4
  br label %37

37:                                               ; preds = %36, %33
  %38 = load i32, ptr %4, align 4
  %39 = getelementptr inbounds %class.DwarfParser, ptr %6, i32 0, i32 1
  %40 = load ptr, ptr %39, align 8
  %41 = sext i32 %38 to i64
  %42 = getelementptr inbounds i8, ptr %40, i64 %41
  store ptr %42, ptr %39, align 8
  %43 = load i64, ptr %5, align 8
  %44 = trunc i64 %43 to i32
  store i32 %44, ptr %2, align 4
  br label %45

45:                                               ; preds = %37, %29
  %46 = load i32, ptr %2, align 4
  ret i32 %46
}