; Function Attrs: mustprogress nofree norecurse nosync nounwind willreturn memory(read, argmem: readwrite, inaccessiblemem: none) uwtable
define hidden noundef i32 @_ZN11DwarfParser12get_pc_rangeEv(ptr nocapture noundef nonnull align 8 dereferenceable(61) %0) local_unnamed_addr #1 align 2 {
  %2 = getelementptr inbounds i8, ptr %0, i64 16
  %3 = load i8, ptr %2, align 8
  %4 = and i8 %3, 7
  switch i8 %4, label %28 [
    i8 0, label %5
    i8 2, label %9
    i8 3, label %14
    i8 4, label %19
  ]

5:                                                ; preds = %1
  %6 = getelementptr inbounds i8, ptr %0, i64 8
  %7 = load ptr, ptr %6, align 8
  %8 = load i64, ptr %7, align 8
  br label %23

9:                                                ; preds = %1
  %10 = getelementptr inbounds i8, ptr %0, i64 8
  %11 = load ptr, ptr %10, align 8
  %12 = load i32, ptr %11, align 4
  %13 = zext i32 %12 to i64
  br label %23

14:                                               ; preds = %1
  %15 = getelementptr inbounds i8, ptr %0, i64 8
  %16 = load ptr, ptr %15, align 8
  %17 = load i32, ptr %16, align 4
  %18 = zext i32 %17 to i64
  br label %23

19:                                               ; preds = %1
  %20 = getelementptr inbounds i8, ptr %0, i64 8
  %21 = load ptr, ptr %20, align 8
  %22 = load i64, ptr %21, align 8
  br label %23

23:                                               ; preds = %19, %14, %9, %5
  %24 = phi ptr [ %21, %19 ], [ %16, %14 ], [ %11, %9 ], [ %7, %5 ]
  %.0 = phi i64 [ %22, %19 ], [ %18, %14 ], [ %13, %9 ], [ %8, %5 ]
  %25 = getelementptr inbounds i8, ptr %0, i64 8
  %26 = getelementptr inbounds i8, ptr %24, i64 4
  store ptr %26, ptr %25, align 8
  %27 = trunc i64 %.0 to i32
  br label %28

28:                                               ; preds = %1, %23
  %.07 = phi i32 [ %27, %23 ], [ 0, %1 ]
  ret i32 %.07
}